target datalayout = "e-m:e-p270:32:32-p271:32:32-p272:64:64-i64:64-i128:128-f80:128-n8:16:32:64-S128"
target triple = "x86_64-pc-linux-gnu"

%union.anon = type { i32 }
%struct.LZ4_stream_t_internal = type { [4096 x i32], ptr, ptr, i32, i32, i32 }
%struct.LZ4_unalign32 = type { i32 }
%struct.LZ4_unalignST = type { i64 }

@__const._ZL18LZ4_isLittleEndianv.one = private unnamed_addr constant %union.anon { i32 1 }, align 4

; Function Attrs: mustprogress nounwind uwtable
define internal noundef i32 @_ZL18LZ4_isLittleEndianv() #0 {
  %1 = alloca %union.anon, align 4
  call void @llvm.lifetime.start.p0(i64 4, ptr %1) #12
  call void @llvm.memcpy.p0.p0.i64(ptr align 4 %1, ptr align 4 @__const._ZL18LZ4_isLittleEndianv.one, i64 4, i1 false)
  %2 = getelementptr inbounds [4 x i8], ptr %1, i64 0, i64 0
  %3 = load i8, ptr %2, align 4, !tbaa !28
  %4 = zext i8 %3 to i32
  call void @llvm.lifetime.end.p0(i64 4, ptr %1) #12
  ret i32 %4
}

; Function Attrs: alwaysinline mustprogress nounwind uwtable
define internal noundef i32 @_ZL9LZ4_hash4j11tableType_t(i32 noundef %0, i32 noundef %1) #4 {
  %3 = alloca i32, align 4
  %4 = alloca i32, align 4
  %5 = alloca i32, align 4
  store i32 %0, ptr %4, align 4, !tbaa !6
  store i32 %1, ptr %5, align 4, !tbaa !16
  %6 = load i32, ptr %5, align 4, !tbaa !16
  %7 = icmp eq i32 %6, 3
  br i1 %7, label %8, label %12

8:                                                ; preds = %2
  %9 = load i32, ptr %4, align 4, !tbaa !6
  %10 = mul i32 %9, -1640531535
  %11 = lshr i32 %10, 19
  store i32 %11, ptr %3, align 4
  br label %16

12:                                               ; preds = %2
  %13 = load i32, ptr %4, align 4, !tbaa !6
  %14 = mul i32 %13, -1640531535
  %15 = lshr i32 %14, 20
  store i32 %15, ptr %3, align 4
  br label %16

16:                                               ; preds = %12, %8
  %17 = load i32, ptr %3, align 4
  ret i32 %17
}

; Function Attrs: mustprogress nounwind uwtable
define internal noundef i32 @_ZL10LZ4_read32PKv(ptr noundef %0) #0 {
  %2 = alloca ptr, align 8
  store ptr %0, ptr %2, align 8, !tbaa !10
  %3 = load ptr, ptr %2, align 8, !tbaa !10
  %4 = getelementptr inbounds nuw %struct.LZ4_unalign32, ptr %3, i32 0, i32 0
  %5 = load i32, ptr %4, align 1, !tbaa !72
  ret i32 %5
}

; Function Attrs: alwaysinline mustprogress nounwind uwtable
define internal noundef i32 @_ZL9LZ4_hash5m11tableType_t(i64 noundef %0, i32 noundef %1) #4 {
  %3 = alloca i32, align 4
  %4 = alloca i64, align 8
  %5 = alloca i32, align 4
  %6 = alloca i32, align 4
  %7 = alloca i64, align 8
  %8 = alloca i32, align 4
  %9 = alloca i64, align 8
  store i64 %0, ptr %4, align 8, !tbaa !18
  store i32 %1, ptr %5, align 4, !tbaa !16
  call void @llvm.lifetime.start.p0(i64 4, ptr %6) #12
  %10 = load i32, ptr %5, align 4, !tbaa !16
  %11 = icmp eq i32 %10, 3
  %12 = select i1 %11, i32 13, i32 12
  store i32 %12, ptr %6, align 4, !tbaa !6
  %13 = call noundef i32 @_ZL18LZ4_isLittleEndianv()
  %14 = icmp ne i32 %13, 0
  br i1 %14, label %15, label %24

15:                                               ; preds = %2
  call void @llvm.lifetime.start.p0(i64 8, ptr %7) #12
  store i64 889523592379, ptr %7, align 8, !tbaa !18
  %16 = load i64, ptr %4, align 8, !tbaa !18
  %17 = shl i64 %16, 24
  %18 = mul i64 %17, 889523592379
  %19 = load i32, ptr %6, align 4, !tbaa !6
  %20 = sub i32 64, %19
  %21 = zext i32 %20 to i64
  %22 = lshr i64 %18, %21
  %23 = trunc i64 %22 to i32
  store i32 %23, ptr %3, align 4
  store i32 1, ptr %8, align 4
  call void @llvm.lifetime.end.p0(i64 8, ptr %7) #12
  br label %33

24:                                               ; preds = %2
  call void @llvm.lifetime.start.p0(i64 8, ptr %9) #12
  store i64 -7046029288634856825, ptr %9, align 8, !tbaa !18
  %25 = load i64, ptr %4, align 8, !tbaa !18
  %26 = lshr i64 %25, 24
  %27 = mul i64 %26, -7046029288634856825
  %28 = load i32, ptr %6, align 4, !tbaa !6
  %29 = sub i32 64, %28
  %30 = zext i32 %29 to i64
  %31 = lshr i64 %27, %30
  %32 = trunc i64 %31 to i32
  store i32 %32, ptr %3, align 4
  store i32 1, ptr %8, align 4
  call void @llvm.lifetime.end.p0(i64 8, ptr %9) #12
  br label %33

33:                                               ; preds = %24, %15
  call void @llvm.lifetime.end.p0(i64 4, ptr %6) #12
  %34 = load i32, ptr %3, align 4
  ret i32 %34
}

; Function Attrs: mustprogress nounwind uwtable
define internal noundef i64 @_ZL13LZ4_read_ARCHPKv(ptr noundef %0) #0 {
  %2 = alloca ptr, align 8
  store ptr %0, ptr %2, align 8, !tbaa !10
  %3 = load ptr, ptr %2, align 8, !tbaa !10
  %4 = getelementptr inbounds nuw %struct.LZ4_unalignST, ptr %3, i32 0, i32 0
  %5 = load i64, ptr %4, align 1, !tbaa !78
  ret i64 %5
}

; Function Attrs: alwaysinline mustprogress nounwind uwtable
define internal void @_ZL18LZ4_putIndexOnHashjjPv11tableType_t(i32 noundef %0, i32 noundef %1, ptr noundef %2, i32 noundef %3) #4 {
  %5 = alloca i32, align 4
  %6 = alloca i32, align 4
  %7 = alloca ptr, align 8
  %8 = alloca i32, align 4
  %9 = alloca ptr, align 8
  %10 = alloca ptr, align 8
  store i32 %0, ptr %5, align 4, !tbaa !6
  store i32 %1, ptr %6, align 4, !tbaa !6
  store ptr %2, ptr %7, align 8, !tbaa !10
  store i32 %3, ptr %8, align 4, !tbaa !16
  %11 = load i32, ptr %8, align 4, !tbaa !16
  switch i32 %11, label %12 [
    i32 0, label %13
    i32 1, label %13
    i32 2, label %14
    i32 3, label %21
  ]

12:                                               ; preds = %4
  br label %13

13:                                               ; preds = %4, %4, %12
  br label %29

14:                                               ; preds = %4
  call void @llvm.lifetime.start.p0(i64 8, ptr %9) #12
  %15 = load ptr, ptr %7, align 8, !tbaa !10
  store ptr %15, ptr %9, align 8, !tbaa !20
  %16 = load i32, ptr %5, align 4, !tbaa !6
  %17 = load ptr, ptr %9, align 8, !tbaa !20
  %18 = load i32, ptr %6, align 4, !tbaa !6
  %19 = zext i32 %18 to i64
  %20 = getelementptr inbounds nuw i32, ptr %17, i64 %19
  store i32 %16, ptr %20, align 4, !tbaa !6
  call void @llvm.lifetime.end.p0(i64 8, ptr %9) #12
  br label %29

21:                                               ; preds = %4
  call void @llvm.lifetime.start.p0(i64 8, ptr %10) #12
  %22 = load ptr, ptr %7, align 8, !tbaa !10
  store ptr %22, ptr %10, align 8, !tbaa !39
  %23 = load i32, ptr %5, align 4, !tbaa !6
  %24 = trunc i32 %23 to i16
  %25 = load ptr, ptr %10, align 8, !tbaa !39
  %26 = load i32, ptr %6, align 4, !tbaa !6
  %27 = zext i32 %26 to i64
  %28 = getelementptr inbounds nuw i16, ptr %25, i64 %27
  store i16 %24, ptr %28, align 2, !tbaa !41
  call void @llvm.lifetime.end.p0(i64 8, ptr %10) #12
  br label %29

29:                                               ; preds = %21, %14, %13
  ret void
}

; Function Attrs: alwaysinline mustprogress uwtable
define internal noundef i32 @_ZL16LZ4_hashPositionPKv11tableType_t(ptr noundef %0, i32 noundef %1) #3 {
  %3 = alloca i32, align 4
  %4 = alloca ptr, align 8
  %5 = alloca i32, align 4
  store ptr %0, ptr %4, align 8, !tbaa !10
  store i32 %1, ptr %5, align 4, !tbaa !16
  %6 = load i32, ptr %5, align 4, !tbaa !16
  %7 = icmp ne i32 %6, 3
  br i1 %7, label %8, label %13

8:                                                ; preds = %2
  %9 = load ptr, ptr %4, align 8, !tbaa !10
  %10 = call noundef i64 @_ZL13LZ4_read_ARCHPKv(ptr noundef %9)
  %11 = load i32, ptr %5, align 4, !tbaa !16
  %12 = call noundef i32 @_ZL9LZ4_hash5m11tableType_t(i64 noundef %10, i32 noundef %11)
  store i32 %12, ptr %3, align 4
  br label %18

13:                                               ; preds = %2
  %14 = load ptr, ptr %4, align 8, !tbaa !10
  %15 = call noundef i32 @_ZL10LZ4_read32PKv(ptr noundef %14)
  %16 = load i32, ptr %5, align 4, !tbaa !16
  %17 = call noundef i32 @_ZL9LZ4_hash4j11tableType_t(i32 noundef %15, i32 noundef %16)
  store i32 %17, ptr %3, align 4
  br label %18

18:                                               ; preds = %13, %8
  %19 = load i32, ptr %3, align 4
  ret i32 %19
}

; Function Attrs: mustprogress nounwind uwtable
define void @LZ4_resetStream(ptr noundef %0) #0 {
  %2 = alloca ptr, align 8
  store ptr %0, ptr %2, align 8, !tbaa !35
  %3 = load ptr, ptr %2, align 8, !tbaa !35
  call void @llvm.memset.p0.i64(ptr align 8 %3, i8 0, i64 16416, i1 false)
  ret void
}

; Function Attrs: mustprogress uwtable
define i32 @LZ4_loadDict(ptr noundef %0, ptr noundef %1, i32 noundef %2) #1 {
  %4 = alloca i32, align 4
  %5 = alloca ptr, align 8
  %6 = alloca ptr, align 8
  %7 = alloca i32, align 4
  %8 = alloca ptr, align 8
  %9 = alloca i32, align 4
  %10 = alloca ptr, align 8
  %11 = alloca ptr, align 8
  %12 = alloca i32, align 4
  %13 = alloca i32, align 4
  %14 = alloca i32, align 4
  store ptr %0, ptr %5, align 8, !tbaa !35
  store ptr %1, ptr %6, align 8, !tbaa !12
  store i32 %2, ptr %7, align 4, !tbaa !6
  call void @llvm.lifetime.start.p0(i64 8, ptr %8) #12
  %15 = load ptr, ptr %5, align 8, !tbaa !35
  store ptr %15, ptr %8, align 8, !tbaa !14
  call void @llvm.lifetime.start.p0(i64 4, ptr %9) #12
  store i32 2, ptr %9, align 4, !tbaa !16
  call void @llvm.lifetime.start.p0(i64 8, ptr %10) #12
  %16 = load ptr, ptr %6, align 8, !tbaa !12
  store ptr %16, ptr %10, align 8, !tbaa !12
  call void @llvm.lifetime.start.p0(i64 8, ptr %11) #12
  %17 = load ptr, ptr %10, align 8, !tbaa !12
  %18 = load i32, ptr %7, align 4, !tbaa !6
  %19 = sext i32 %18 to i64
  %20 = getelementptr inbounds i8, ptr %17, i64 %19
  store ptr %20, ptr %11, align 8, !tbaa !12
  call void @llvm.lifetime.start.p0(i64 4, ptr %12) #12
  %21 = load ptr, ptr %5, align 8, !tbaa !35
  call void @LZ4_resetStream(ptr noundef %21)
  %22 = load ptr, ptr %8, align 8, !tbaa !14
  %23 = getelementptr inbounds nuw %struct.LZ4_stream_t_internal, ptr %22, i32 0, i32 3
  %24 = load i32, ptr %23, align 8, !tbaa !29
  %25 = add i32 %24, 65536
  store i32 %25, ptr %23, align 8, !tbaa !29
  %26 = load i32, ptr %7, align 4, !tbaa !6
  %27 = icmp slt i32 %26, 8
  br i1 %27, label %28, label %29

28:                                               ; preds = %3
  store i32 0, ptr %4, align 4
  store i32 1, ptr %13, align 4
  br label %81

29:                                               ; preds = %3
  %30 = load ptr, ptr %11, align 8, !tbaa !12
  %31 = load ptr, ptr %10, align 8, !tbaa !12
  %32 = ptrtoint ptr %30 to i64
  %33 = ptrtoint ptr %31 to i64
  %34 = sub i64 %32, %33
  %35 = icmp sgt i64 %34, 65536
  br i1 %35, label %36, label %39

36:                                               ; preds = %29
  %37 = load ptr, ptr %11, align 8, !tbaa !12
  %38 = getelementptr inbounds i8, ptr %37, i64 -65536
  store ptr %38, ptr %10, align 8, !tbaa !12
  br label %39

39:                                               ; preds = %36, %29
  %40 = load ptr, ptr %10, align 8, !tbaa !12
  %41 = load ptr, ptr %8, align 8, !tbaa !14
  %42 = getelementptr inbounds nuw %struct.LZ4_stream_t_internal, ptr %41, i32 0, i32 1
  store ptr %40, ptr %42, align 8, !tbaa !33
  %43 = load ptr, ptr %11, align 8, !tbaa !12
  %44 = load ptr, ptr %10, align 8, !tbaa !12
  %45 = ptrtoint ptr %43 to i64
  %46 = ptrtoint ptr %44 to i64
  %47 = sub i64 %45, %46
  %48 = trunc i64 %47 to i32
  %49 = load ptr, ptr %8, align 8, !tbaa !14
  %50 = getelementptr inbounds nuw %struct.LZ4_stream_t_internal, ptr %49, i32 0, i32 5
  store i32 %48, ptr %50, align 8, !tbaa !34
  %51 = load ptr, ptr %8, align 8, !tbaa !14
  %52 = getelementptr inbounds nuw %struct.LZ4_stream_t_internal, ptr %51, i32 0, i32 4
  store i32 2, ptr %52, align 4, !tbaa !31
  %53 = load ptr, ptr %8, align 8, !tbaa !14
  %54 = getelementptr inbounds nuw %struct.LZ4_stream_t_internal, ptr %53, i32 0, i32 3
  %55 = load i32, ptr %54, align 8, !tbaa !29
  %56 = load ptr, ptr %8, align 8, !tbaa !14
  %57 = getelementptr inbounds nuw %struct.LZ4_stream_t_internal, ptr %56, i32 0, i32 5
  %58 = load i32, ptr %57, align 8, !tbaa !34
  %59 = sub i32 %55, %58
  store i32 %59, ptr %12, align 4, !tbaa !6
  br label %60

60:                                               ; preds = %65, %39
  %61 = load ptr, ptr %10, align 8, !tbaa !12
  %62 = load ptr, ptr %11, align 8, !tbaa !12
  %63 = getelementptr inbounds i8, ptr %62, i64 -8
  %64 = icmp ule ptr %61, %63
  br i1 %64, label %65, label %77

65:                                               ; preds = %60
  call void @llvm.lifetime.start.p0(i64 4, ptr %14) #12
  %66 = load ptr, ptr %10, align 8, !tbaa !12
  %67 = call noundef i32 @_ZL16LZ4_hashPositionPKv11tableType_t(ptr noundef %66, i32 noundef 2)
  store i32 %67, ptr %14, align 4, !tbaa !6
  %68 = load i32, ptr %12, align 4, !tbaa !6
  %69 = load i32, ptr %14, align 4, !tbaa !6
  %70 = load ptr, ptr %8, align 8, !tbaa !14
  %71 = getelementptr inbounds nuw %struct.LZ4_stream_t_internal, ptr %70, i32 0, i32 0
  %72 = getelementptr inbounds [4096 x i32], ptr %71, i64 0, i64 0
  call void @_ZL18LZ4_putIndexOnHashjjPv11tableType_t(i32 noundef %68, i32 noundef %69, ptr noundef %72, i32 noundef 2)
  %73 = load ptr, ptr %10, align 8, !tbaa !12
  %74 = getelementptr inbounds i8, ptr %73, i64 3
  store ptr %74, ptr %10, align 8, !tbaa !12
  %75 = load i32, ptr %12, align 4, !tbaa !6
  %76 = add i32 %75, 3
  store i32 %76, ptr %12, align 4, !tbaa !6
  call void @llvm.lifetime.end.p0(i64 4, ptr %14) #12
  br label %60, !llvm.loop !37

77:                                               ; preds = %60
  %78 = load ptr, ptr %8, align 8, !tbaa !14
  %79 = getelementptr inbounds nuw %struct.LZ4_stream_t_internal, ptr %78, i32 0, i32 5
  %80 = load i32, ptr %79, align 8, !tbaa !34
  store i32 %80, ptr %4, align 4
  store i32 1, ptr %13, align 4
  br label %81

81:                                               ; preds = %77, %28
  call void @llvm.lifetime.end.p0(i64 4, ptr %12) #12
  call void @llvm.lifetime.end.p0(i64 8, ptr %11) #12
  call void @llvm.lifetime.end.p0(i64 8, ptr %10) #12
  call void @llvm.lifetime.end.p0(i64 4, ptr %9) #12
  call void @llvm.lifetime.end.p0(i64 8, ptr %8) #12
  %82 = load i32, ptr %4, align 4
  ret i32 %82
}