; Function Attrs: mustprogress nofree norecurse nosync nounwind memory(argmem: readwrite) uwtable
define i32 @LZ4_loadDict(ptr noundef writeonly captures(none) initializes((0, 16416)) %0, ptr noundef %1, i32 noundef %2) local_unnamed_addr #10 {
  tail call void @llvm.memset.p0.i64(ptr noundef nonnull align 8 dereferenceable(16416) %0, i8 0, i64 16416, i1 false)
  %4 = getelementptr inbounds nuw i8, ptr %0, i64 16400
  store i32 65536, ptr %4, align 8, !tbaa !9
  %5 = icmp slt i32 %2, 8
  br i1 %5, label %.loopexit, label %6

6:                                                ; preds = %3
  %7 = zext nneg i32 %2 to i64
  %8 = getelementptr inbounds nuw i8, ptr %1, i64 %7
  %9 = ptrtoint ptr %8 to i64
  %10 = icmp samesign ugt i32 %2, 65536
  %11 = getelementptr inbounds i8, ptr %8, i64 -65536
  %spec.select = select i1 %10, ptr %11, ptr %1
  %12 = getelementptr inbounds nuw i8, ptr %0, i64 16384
  store ptr %spec.select, ptr %12, align 8, !tbaa !38
  %13 = ptrtoint ptr %spec.select to i64
  %14 = sub i64 %9, %13
  %15 = trunc i64 %14 to i32
  %16 = getelementptr inbounds nuw i8, ptr %0, i64 16408
  store i32 %15, ptr %16, align 8, !tbaa !15
  %17 = getelementptr inbounds nuw i8, ptr %0, i64 16404
  store i32 2, ptr %17, align 4, !tbaa !16
  %18 = getelementptr inbounds i8, ptr %8, i64 -8
  %.not29 = icmp ugt ptr %spec.select, %18
  br i1 %.not29, label %.loopexit, label %.lr.ph.preheader

.lr.ph.preheader:                                 ; preds = %6
  %19 = sub i32 65536, %15
  br label %.lr.ph

.lr.ph:                                           ; preds = %.lr.ph.preheader, %.lr.ph
  %.02731 = phi i32 [ %24, %.lr.ph ], [ %19, %.lr.ph.preheader ]
  %.130 = phi ptr [ %23, %.lr.ph ], [ %spec.select, %.lr.ph.preheader ]
  %.1.val = load i64, ptr %.130, align 1, !tbaa !29
  %20 = mul i64 %.1.val, -3523014627271114752
  %21 = lshr i64 %20, 52
  %22 = getelementptr inbounds nuw i32, ptr %0, i64 %21
  store i32 %.02731, ptr %22, align 4, !tbaa !34
  %23 = getelementptr inbounds nuw i8, ptr %.130, i64 3
  %24 = add i32 %.02731, 3
  %.not = icmp ugt ptr %23, %18
  br i1 %.not, label %.loopexit, label %.lr.ph, !llvm.loop !39

.loopexit:                                        ; preds = %.lr.ph, %6, %3
  %.0 = phi i32 [ 0, %3 ], [ %15, %6 ], [ %15, %.lr.ph ]
  ret i32 %.0
}